(lp0
(S'\xef\xbb\xbfroute_id'
p1
S'route_short_name: route_long_name'
p2
tp3
a(S'22390'
p4
S'002: MACDONALD-16TH AVE/BURRARD STN'
p5
tp6
a(S'22391'
p7
S'003: MAIN/DOWNTOWN'
p8
tp9
a(S'22392'
p10
S'004: POWELL/DOWNTOWN/UBC'
p11
tp12
a(S'22393'
p13
S'005: ROBSON/DOWNTOWN'
p14
tp15
a(S'22394'
p16
S'006: DAVIE/DOWNTOWN'
p17
tp18
a(S'22395'
p19
S'007: NANAIMO STN/DUNBAR'
p20
tp21
a(S'22396'
p22
S'008: FRASER/DOWNTOWN'
p23
tp24
a(S'22397'
p25
S'009: BDRY/COMM-BWY/GRAN/ALMA/UBC'
p26
tp27
a(S'22398'
p28
S'010: GRANVILLE/DOWNTOWN'
p29
tp30
a(S'22399'
p31
S'014: HASTINGS/UBC'
p32
tp33
a(S'22400'
p34
S'015: CAMBIE/OLYMPIC VILLAGE STN'
p35
tp36
a(S'22401'
p37
S'016: 29TH AVENUE STN/ARBUTUS'
p38
tp39
a(S'22402'
p40
S'017: OAK/DOWNTOWN'
p41
tp42
a(S'22403'
p43
S'019: METROTOWN STN/STANLEY PARK'
p44
tp45
a(S'22404'
p46
S'020: VICTORIA/DOWNTOWN'
p47
tp48
a(S'22405'
p49
S'022: KNIGHT/MACDONALD'
p50
tp51
a(S'22406'
p52
S'025: BRENTWOOD STN/UBC'
p53
tp54
a(S'22407'
p55
S'026: JOYCE STN/29TH AVENUE STN'
p56
tp57
a(S'22408'
p58
S'027: KOOTENAY LOOP/JOYCE STN'
p59
tp60
a(S'22409'
p61
S'028: CAP UNIVERSIT/PHIBBS EXCH/JOYCE STN'
p62
tp63
a(S'22410'
p64
S'029: ELLIOTT/29TH AVENUE STN'
p65
tp66
a(S'22411'
p67
S'032: DUNBAR/DOWNTOWN'
p68
tp69
a(S'22412'
p70
S'033: 29 AVE STN/ UBC'
p71
tp72
a(S'22413'
p73
S'041: JOYCE STN/CROWN/UBC'
p74
tp75
a(S'22414'
p76
S'043: JOYCE STN/UBC'
p77
tp78
a(S'22415'
p79
S'044: UBC/DOWNTOWN'
p80
tp81
a(S'22416'
p82
S'049: METROTOWN STN/DUNBAR LOOP/UBC'
p83
tp84
a(S'22417'
p85
S'050: WATERFRONT STN/FALSE CREEK SOUTH'
p86
tp87
a(S'22418'
p88
S'084: UBC/VCC STATION'
p89
tp90
a(S'22419'
p91
S'096: GUILDFORD EX/ NEWTON EX (B-LINE)'
p92
tp93
a(S'22420'
p94
S'097: COQUITLAM STN/LOUGHEED STN (B-LINE)'
p95
tp96
a(S'22421'
p97
S'099: COMMERCIAL-BROADWAY/UBC (B-LINE)'
p98
tp99
a(S'22422'
p100
S'100: 22ND ST STN/MARPOLE LOOP'
p101
tp102
a(S'22423'
p103
S'101: LOUGHEED STN/22ND ST STN'
p104
tp105
a(S'22424'
p106
S'104: 22ND ST STN/ANNACIS ISLAND'
p107
tp108
a(S'22425'
p109
S'106: NEW WESTMINSTER STN/METROTOWN STN'
p110
tp111
a(S'22426'
p112
S'110: LOUGHEED STN/METROTOWN STN'
p113
tp114
a(S'22427'
p115
S'112: EDMONDS STN/NEW WEST STN'
p116
tp117
a(S'22428'
p118
S'116: EDMONDS STN/METROTOWN STN'
p119
tp120
a(S'22429'
p121
S'123: NEW WEST STN/BRENTWOOD STN'
p122
tp123
a(S'22430'
p124
S'125: PATTERSON STN/BCIT'
p125
tp126
a(S'22431'
p127
S'128: BRAID STN/22ND STREET STN'
p128
tp129
a(S'22432'
p130
S'129: METROTOWN STN/EDMONDS STN'
p131
tp132
a(S'22433'
p133
S'130: METROTOWN/HASTINGS/KOOTENAY/CAP U'
p134
tp135
a(S'22434'
p136
S'134: LAKE CITY STN/BRENTWOOD STN'
p137
tp138
a(S'22435'
p139
S'135: SFU/BURRARD STN'
p140
tp141
a(S'22436'
p142
S'136: LOUGHEED STN/BRENTWOOD STN'
p143
tp144
a(S'22437'
p145
S'143: COQUITLAM STN/SFU'
p146
tp147
a(S'22438'
p148
S'144: SFU/METROTOWN STN'
p149
tp150
a(S'22439'
p151
S'145: SFU/PRODUCTION STN'
p152
tp153
a(S'22440'
p154
S'150: WHITE PINE BEACH/COQUITLAM STN'
p155
tp156
a(S'22441'
p157
S'151: COQUITLAM STN/LOUGHEED STN'
p158
tp159
a(S'22442'
p160
S'152: COQUITLAM STN/LOUGHEED STN'
p161
tp162
a(S'22443'
p163
S'153: COQUITLAM REC CTR/BRAID STN'
p164
tp165
a(S'22444'
p166
S'155: BRAID STN/22ND STREET  STN'
p167
tp168
a(S'22445'
p169
S'156: BRAID STN/LOUGHEED STN'
p170
tp171
a(S'22446'
p172
S'157: COQUITLAM REC CENTRE/LOUGHEED STN'
p173
tp174
a(S'22447'
p175
S'159: PORT COQUITLAM STN/BRAID STN'
p176
tp177
a(S'22448'
p178
S'160: PORT COQUITLAM STN/VANCOUVER'
p179
tp180
a(S'22449'
p181
S'169: COQUITLAM STN/BRAID STN'
p182
tp183
a(S'22450'
p184
S'177: COQUITLAM STN/BRAID STN'
p185
tp186
a(S'22637'
p187
S'178: COQUITLAM STN/PORT MOODY STN'
p188
tp189
a(S'22451'
p190
S'179: COQUITLAM STN/JOHNSON'
p191
tp192
a(S'22638'
p193
S'188: COQUITLAM STN/PORT COQUITLAM STN'
p194
tp195
a(S'22452'
p196
S'189: COQUITLAM STN/COAST MERIDIAN'
p197
tp198
a(S'22453'
p199
S'190: COQUITLAM STN/VANCOUVER'
p200
tp201
a(S'22454'
p202
S'209: UPPER LYNN VALLEY/VANCOUVER'
p203
tp204
a(S'22455'
p205
S'210: UPPER LYNN VALLEY/VANCOUVER'
p206
tp207
a(S'22456'
p208
S'211: SEYMOUR/PHIBBS EXCH/VANCOUVER'
p209
tp210
a(S'22457'
p211
S'212: DEEP COVE/PHIBBS EXCH'
p212
tp213
a(S'22458'
p214
S'214: BLUERIDGE/PHIBBS EXCH/VANCOUVER'
p215
tp216
a(S'22639'
p217
S'227: LYNN VALLEY CENTRE/PHIBBS EXCHANGE'
p218
tp219
a(S'22459'
p220
S'228: LYNN VALLEY/LONSDALE QUAY'
p221
tp222
a(S'22460'
p223
S'229: LYNN VALLEY CENTRE/LONSDALE QUAY'
p224
tp225
a(S'22461'
p226
S'230: UPPER LONSDALE/LONSDALE QUAY'
p227
tp228
a(S'22462'
p229
S'231: HARBOURSIDE/LONSDALE QUAY'
p230
tp231
a(S'22463'
p232
S'232: GROUSE MOUNTAIN/PHIBBS EXCH'
p233
tp234
a(S'22464'
p235
S'236: GROUSE MOUNTAIN/LONSDALE QUAY'
p236
tp237
a(S'22465'
p238
S'239: CAPILANO UNIVERSITY/PARK ROYAL'
p239
tp240
a(S'22466'
p241
S'240: 15TH STREET/VANCOUVER'
p242
tp243
a(S'22467'
p244
S'241: UPPER LONSDALE/VANCOUVER'
p245
tp246
a(S'22468'
p247
S'242: UPPER LONSDALE/VANCOUVER'
p248
tp249
a(S'22469'
p250
S'246: LONSDALE QUAY/HIGHLAND/VANCOUVER'
p251
tp252
a(S'22470'
p253
S'247: UPPER CAPILANO/GROUSE/VANCOUVER'
p254
tp255
a(S'22471'
p256
S'250: HORSESHOE BAY/DUNDARAVE/VANCOUVER'
p257
tp258
a(S'22472'
p259
S'251: QUEENS/VANCOUVER/PARK ROYAL'
p260
tp261
a(S'22473'
p262
S'252: INGLEWOOD/VANCOUVER/PARK ROYAL'
p263
tp264
a(S'22474'
p265
S'253: CAULFEILD/VANCOUVER/PARK ROYAL'
p266
tp267
a(S'22475'
p268
S'254: BRITISH PROPERTIES/PARK ROYAL/VAN'
p269
tp270
a(S'22476'
p271
S'255: DUNDARAVE/CAPILANO UNIVERSITY'
p272
tp273
a(S'22477'
p274
S'256: FOLKSTONE WY/WHITBY ESTATE/SPURAWAY'
p275
tp276
a(S'22478'
p277
S'257: HORSESHOE BAY/VANCOUVER EXPRESS'
p278
tp279
a(S'22479'
p280
S'258: UBC/WEST VANCOUVER'
p281
tp282
a(S'22480'
p283
S'259: LIONS BAY/HORSESHOE BAY'
p284
tp285
a(S'22481'
p286
S'301: NEWTON EXCHANGE/BRIGHOUSE STATION'
p287
tp288
a(S'22482'
p289
S'311: SCOTTSDALE/BRIDGEPORT STN'
p290
tp291
a(S'22483'
p292
S'312: SCOTTSDALE/SCOTT ROAD STN'
p293
tp294
a(S'22484'
p295
S'314: SURREY CENTRAL/SUNBURY'
p296
tp297
a(S'22485'
p298
S'316: SURREY CENTRAL STN/SCOTTSDALE'
p299
tp300
a(S'22486'
p301
S'319: SCOTT ROAD STN/NEWTON EXCHA'
p302
tp303
a(S'22487'
p304
S'320: LANGLEY/FLEETWOOD/SURREY CTRL STN'
p305
tp306
a(S'22488'
p307
S'321: WHITE ROCK/NEWTON/SURREY CTRL STN'
p308
tp309
a(S'22489'
p310
S'323: NEWTON EXCH/SURREY CENTRAL STN'
p311
tp312
a(S'22490'
p313
S'324: NEWTON EXCH/SURREY CENTRAL STN'
p314
tp315
a(S'22491'
p316
S'325: NEWTON EXCH/SURREY CENTRAL STN'
p317
tp318
a(S'22492'
p319
S'326: GUILDFORD/SURREY CENTRAL STN'
p320
tp321
a(S'22493'
p322
S'329: SURREY CENTRAL STN/SCOTTSDALE'
p323
tp324
a(S'22495'
p325
S'335: NEWTON/SURREY CENTRAL STN'
p326
tp327
a(S'22496'
p328
S'337: FRASER HEIGHTS/GUILDFORD/SURREY CTR'
p329
tp330
a(S'22497'
p331
S'340: SCOTTSDALE/22ND ST STN'
p332
tp333
a(S'22498'
p334
S'341: GUILDFORD/LANGLEY CENTRE'
p335
tp336
a(S'22499'
p337
S'345: KING GEORGE STN/WHITE ROCK CENTRE'
p338
tp339
a(S'22500'
p340
S'351: CRESCENT BEACH/BRIDGEPORT STN'
p341
tp342
a(S'22501'
p343
S'352: OCEAN PARK /BRIDGEPORT STN'
p344
tp345
a(S'22502'
p346
S'354: WHITE ROCK SOUTH/BRIDGEPORT STATION'
p347
tp348
a(S'22503'
p349
S'364: LANGLEY CTR/ SCOTTSDALE EX'
p350
tp351
a(S'22504'
p352
S'375: WHITE ROCK/WHITE ROCK STH/GUILDFORD'
p353
tp354
a(S'22505'
p355
S'388: 22ST STN/CARVOLTH EXCH'
p356
tp357
a(S'22506'
p358
S'391: SCOTTSDALE/SCOTT ROAD STN'
p359
tp360
a(S'22507'
p361
S'393: NEWTON EXCH/SURREY CENTRAL STN'
p362
tp363
a(S'22508'
p364
S'394: WHITE ROCK/KING GEORGE STN EXPRESS'
p365
tp366
a(S'22509'
p367
S'395: WILLOWBROOK/KING GEORGE STN'
p368
tp369
a(S'22510'
p370
S'401: ONE ROAD/GARDEN CITY'
p371
tp372
a(S'22511'
p373
S'402: TWO ROAD/BRIGHOUSE STATION'
p374
tp375
a(S'22512'
p376
S'403: BRIDGEPORT STN/THREE ROAD'
p377
tp378
a(S'22513'
p379
S'404: LADNER EXCH/BRIGHOUSE STATION'
p380
tp381
a(S'22514'
p382
S'405: FIVE ROAD/CAMBIE'
p383
tp384
a(S'22515'
p385
S'407: GILBERT/BRIDGEPORT'
p386
tp387
a(S'22516'
p388
S'410: 22ND ST STN/QUEENSBOROUGH/RAILWAY'
p389
tp390
a(S'22517'
p391
S'430: METROTOWN/BRIGHOUSE STATION'
p392
tp393
a(S'22518'
p394
S'480: UBC/BRIDGEPORT STN'
p395
tp396
a(S'22519'
p397
S'501: LANGLEY CENTRE/SURREY CENTRAL STN'
p398
tp399
a(S'22520'
p400
S'502: ALDGR/BRKSWD/LANGLEY/SURREY STN'
p401
tp402
a(S'22521'
p403
S'509: WALNUT GROVE/SURREY CENTRAL STN'
p404
tp405
a(S'22522'
p406
S'531: WHITE ROCK CENTRE/WILLOWBROOK'
p407
tp408
a(S'22523'
p409
S'555: CARVOLTH EXCH / BRAID STN'
p410
tp411
a(S'22524'
p412
S'590: LANGLEY SOUTH/SURREY CENTRAL STN'
p413
tp414
a(S'22525'
p415
S'595: MAPLE MEADOWS STN/LANGLEY CENTRE'
p416
tp417
a(S'22526'
p418
S'601: SOUTH DELTA/BOUNDARY BAY/BRIDGEPORT'
p419
tp420
a(S'22527'
p421
S'602: TSAWWASSEN HEIGHTS/BRIDGEPORT'
p422
tp423
a(S'22528'
p424
S'603: BEACH GROVE/BRIDGEPORT'
p425
tp426
a(S'22529'
p427
S'604: ENGLISH BLUFF/BRIDGEPORT'
p428
tp429
a(S'22530'
p430
S'606: LADNER RING'
p431
tp432
a(S'22531'
p433
S'608: LADNER RING'
p434
tp435
a(S'22532'
p436
S'609: TSAWWASSEN FIRST NATION/SOUTH DELTA'
p437
tp438
a(S'22533'
p439
S'620: TSAWWASSEN FERRY/BRIDGEPORT STATION'
p440
tp441
a(S'22534'
p442
S'640: LADNER EXCH/SCOTT ROAD STN'
p443
tp444
a(S'22535'
p445
S'701: HANEY/MAPLE RIDGE EAST/COQ STN'
p446
tp447
a(S'22536'
p448
S'791: HANEY PLACE/BRAID STN'
p449
tp450
a(S'22537'
p451
S'804: HOLY CROSS SCHOOL'
p452
tp453
a(S'22538'
p454
S'807: SCHOOL SPECIAL'
p455
tp456
a(S'22539'
p457
S'828: KWANTLEN PARK SCHOOL'
p458
tp459
a(S'22540'
p460
S'848: PORT MOODY SS'
p461
tp462
a(S'22541'
p463
S'855: ELGIN PARK SCHOOL SPECIAL'
p464
tp465
a(S'22542'
p466
S'861: RIVERSIDE SCHOOL'
p467
tp468
a(S'22543'
p469
S'863: TERRY FOX/ARCH CARNEY'
p470
tp471
a(S'22544'
p472
S'865: ROBERTSON'
p473
tp474
a(S'22545'
p475
S'866: GLENEAGLE SCHOOL'
p476
tp477
a(S'22546'
p478
S'867: HERITAGE WOODS SCHOOL'
p479
tp480
a(S'22547'
p481
S'868: PINETREE SCHOOL'
p482
tp483
a(S'22548'
p484
S'880: WINDSOR SCHOOL SPECIALS'
p485
tp486
a(S'22549'
p487
S'881: CARSON GRAHAM SCHOOL SPECIALS'
p488
tp489
a(S'22550'
p490
S'890: BTC OPERATIONAL OVERLOADS'
p491
tp492
a(S'22551'
p493
S'891: NVT OPERATIONAL OVERLOADS'
p494
tp495
a(S'22552'
p496
S'892: PCT OVERLOADS'
p497
tp498
a(S'22553'
p499
S'893: RTC OPERATIONAL OVERLOADS'
p500
tp501
a(S'22554'
p502
S'894: STC OPERATIONAL OVERLOADS'
p503
tp504
a(S'22555'
p505
S'895: VTC/OTC OPERATIONAL OVERLOADS'
p506
tp507
a(S'22556'
p508
S'980: CANADA LINE SkyTrain'
p509
tp510
a(S'22557'
p511
S'996: MILLENNIUM SkyTrain'
p512
tp513
a(S'22558'
p514
S'997: WEST COAST EXPRESS'
p515
tp516
a(S'22559'
p517
S'998: SEABUS'
p518
tp519
a(S'22560'
p520
S'999: EXPO SkyTrain'
p521
tp522
a(S'22561'
p523
S'C1: HASTINGS & GILMORE/KOOTENAY LOOP'
p524
tp525
a(S'22562'
p526
S'C10: BLUEWATER/SNUG COVE'
p527
tp528
a(S'22563'
p529
S'C11: EAGLE CLIFF/SNUG COVE'
p530
tp531
a(S'22564'
p532
S'C12: LIONS BAY/CAULFEILD'
p533
tp534
a(S'22565'
p535
S'C15: INDIAN RVR/DEEP COVE/PHIBBS EXCH'
p536
tp537
a(S'22640'
p538
S'C18: WEST MALL/UBC LOOP'
p539
tp540
a(S'22566'
p541
S'C19: ALMA/UBC'
p542
tp543
a(S'22567'
p544
S'C2: CAPITOL HILL/HASTINGS AT GILMORE'
p545
tp546
a(S'22568'
p547
S'C20: TOTEM PARK/UBC LOOP'
p548
tp549
a(S'22569'
p550
S'C21: YALETOWN/BEACH'
p551
tp552
a(S'22571'
p553
S'C23: YALETOWN/DAVIE/MAIN ST STN'
p554
tp555
a(S'22572'
p556
S'C24: PORT MOODY STN/LOUGHEED STN'
p557
tp558
a(S'22573'
p559
S'C25: IOCO/PORT MOODY STN'
p560
tp561
a(S'22574'
p562
S'C26: BELCARRA/PORT MOODY STN'
p563
tp564
a(S'22575'
p565
S'C27: COQUITLAM STN/PORT MOODY STN'
p566
tp567
a(S'22576'
p568
S'C28: COQUITLAM STN/PORT MOODY STN'
p569
tp570
a(S'22577'
p571
S'C29: COQUITLAM STN/PARKWAY BOULEVARD'
p572
tp573
a(S'22578'
p574
S'C3: FRASERVIEW/NEW WEST STN'
p575
tp576
a(S'22579'
p577
S'C30: LAFARGE PARK/COQUITLAM STN'
p578
tp579
a(S'22580'
p580
S'C36: PORT COQ STN/PORT COQ SOUTH'
p581
tp582
a(S'22581'
p583
S'C37: PORT COQ STN/PRAIRIE/RIVERSIDE'
p584
tp585
a(S'22582'
p586
S'C38: COQ STN/RIVER SPR/PRAIRIE/POCO'
p587
tp588
a(S'22583'
p589
S'C4: UPTOWN/NEW WESTMINSTER STATION'
p590
tp591
a(S'22584'
p592
S'C40: MERIDIAN/PORT COQUITLAM STN'
p593
tp594
a(S'22585'
p595
S'C41: MEADOWTOWN/MAPLE MDWS STN/P MDW CTR'
p596
tp597
a(S'22586'
p598
S'C43: HANEY PL/MAPLE MDWS STN/MEADOWTOWN'
p599
tp600
a(S'22587'
p601
S'C44: HANEY PL/MAPLE MDWS STN/MEADOWTOWN'
p602
tp603
a(S'22588'
p604
S'C45: COTTONWOOD/HANEY PLACE'
p605
tp606
a(S'22589'
p607
S'C46: ALBION/HANEY PLACE'
p608
tp609
a(S'22590'
p610
S'C47: ALOUETTE/HANEY PLACE'
p611
tp612
a(S'22591'
p613
S'C48: THORNHILL/HANEY PLACE'
p614
tp615
a(S'22592'
p616
S'C49: RUSKIN/HANEY PLACE'
p617
tp618
a(S'22593'
p619
S'C5: ROYAL OAK STN/EDMONDS STN'
p620
tp621
a(S'22594'
p622
S'C50: OCEAN PARK/PEACE ARCH HOSPITAL'
p623
tp624
a(S'22595'
p625
S'C51: OCEAN PARK/WHITE ROCK CENTRE'
p626
tp627
a(S'22596'
p628
S'C52: SEASIDE/WHITE ROCK CENTRE'
p629
tp630
a(S'22597'
p631
S'C53: CRANLEY DRIVE/WHITE ROCK CENTRE'
p632
tp633
a(S'22598'
p634
S'C6: METROTOWN STN/SUNCREST'
p635
tp636
a(S'22599'
p637
S'C60: LANGLEY CENTRE/LANGLEY HOSPITAL'
p638
tp639
a(S'22600'
p640
S'C61: LANGLEY CENTRE/BROOKSWOOD'
p641
tp642
a(S'22601'
p643
S'C62: LANGLEY CENTRE/WALNUT GROVE'
p644
tp645
a(S'22602'
p646
S'C63: LANGLEY CENTRE/FERNRIDGE'
p647
tp648
a(S'22603'
p649
S'C64: LANGLEY CTR/WILLOWBROOK'
p650
tp651
a(S'22604'
p652
S'C7: METROTOWN STN/EDMONDS STN'
p653
tp654
a(S'22605'
p655
S'C70: CLOVERDALE/WILLOWBROOK'
p656
tp657
a(S'22606'
p658
S'C71: SURREY CNTRL/SCOTT RD STN'
p659
tp660
a(S'22607'
p661
S'C73: GUILDFORD/ SURREY CNTRL STN'
p662
tp663
a(S'22608'
p664
S'C75: NEWTON EX/SCOTTSDALE'
p665
tp666
a(S'22609'
p667
S'C76: SCOTTSDALE/LADNER EX'
p668
tp669
a(S'22610'
p670
S'C8: QUAYSIDE/NEW WESTMINSTER STATION'
p671
tp672
a(S'22611'
p673
S'C84: ENGLISH BLUFF/SOUTH DELTA REC CENTR'
p674
tp675
a(S'22612'
p676
S'C86: LADNER SOUTH/LADNER EXCH'
p677
tp678
a(S'22613'
p679
S'C87: EAST LADNER/LADNER EXCH'
p680
tp681
a(S'22614'
p682
S'C88: LADNER NORTH/LADNER EXCH'
p683
tp684
a(S'22615'
p685
S'C89: BOUNDARY BAY/SOUTH DELTA REC CENTRE'
p686
tp687
a(S'22616'
p688
S'C9: NEW WESTMINSTER STN/LOUGHEED STN'
p689
tp690
a(S'22617'
p691
S'C92: BRIDGEPORT STATION/SEA ISLAND SOUTH'
p692
tp693
a(S'22618'
p694
S'C93: RIVERPORT/STEVESTON'
p695
tp696
a(S'22619'
p697
S'C94: RICHMOND OVAL/BRIGHOUSE STN'
p698
tp699
a(S'22620'
p700
S'C96: EAST CAMBIE/BRIGHOUSE STATION'
p701
tp702
a(S'22621'
p703
S'C98: KINGSWOOD/22ND ST STN'
p704
tp705
a(S'22623'
p706
S'N10: DOWNTOWN/RICHMOND NIGHTBUS'
p707
tp708
a(S'22624'
p709
S'N15: DOWNTOWN/CAMBIE NIGHTBUS'
p710
tp711
a(S'22625'
p712
S'N16: NANAIMO/RENFREW NIGHTBUS'
p713
tp714
a(S'22626'
p715
S'N17: DOWNTOWN/UBC NIGHTBUS'
p716
tp717
a(S'22627'
p718
S'N19: DOWNTOWN/SURREY CNTRL STN NIGHTBUS'
p719
tp720
a(S'22628'
p721
S'N20: DOWNTOWN/VICTORIA NIGHTBUS'
p722
tp723
a(S'22629'
p724
S'N22: DOWNTOWN/DUNBAR NIGHTBUS'
p725
tp726
a(S'22630'
p727
S'N24: DOWNTOWN/ LYNN VALLEY NIGHTBUS'
p728
tp729
a(S'22631'
p730
S'N35: DOWNTOWN/SFU NIGHTBUS'
p731
tp732
a(S'22632'
p733
S'N6: DOWNTOWN/WEST END NIGHTBUS'
p734
tp735
a(S'22633'
p736
S'N8: DOWNTOWN/FRASER NIGHTBUS'
p737
tp738
a(S'22634'
p739
S'N9: DOWNTOWN/COQUITLAM STN NIGHTBUS'
p740
tp741
a(S'22635'
p742
S'P25: NES SHOW UP'
p743
tp744
a.